target datalayout = "e-m:e-p270:32:32-p271:32:32-p272:64:64-i64:64-i128:128-f80:128-n8:16:32:64-S128"
target triple = "x86_64-pc-linux-gnu"

%struct.sha256_ctx = type { [8 x i32], [2 x i32], i32, [128 x i8] }

; Function Attrs: nounwind uwtable
define internal void @sha256_process_bytes(ptr noundef %0, i64 noundef %1, ptr noundef %2) #0 {
  %4 = alloca ptr, align 8
  %5 = alloca i64, align 8
  %6 = alloca ptr, align 8
  %7 = alloca i64, align 8
  %8 = alloca i64, align 8
  %9 = alloca i64, align 8
  store ptr %0, ptr %4, align 8, !tbaa !22
  store i64 %1, ptr %5, align 8, !tbaa !9
  store ptr %2, ptr %6, align 8, !tbaa !18
  %10 = load ptr, ptr %6, align 8, !tbaa !18
  %11 = getelementptr inbounds nuw %struct.sha256_ctx, ptr %10, i32 0, i32 2
  %12 = load i32, ptr %11, align 4, !tbaa !20
  %13 = icmp ne i32 %12, 0
  br i1 %13, label %14, label %81

14:                                               ; preds = %3
  call void @llvm.lifetime.start.p0(i64 8, ptr %7) #12
  %15 = load ptr, ptr %6, align 8, !tbaa !18
  %16 = getelementptr inbounds nuw %struct.sha256_ctx, ptr %15, i32 0, i32 2
  %17 = load i32, ptr %16, align 4, !tbaa !20
  %18 = zext i32 %17 to i64
  store i64 %18, ptr %7, align 8, !tbaa !9
  call void @llvm.lifetime.start.p0(i64 8, ptr %8) #12
  %19 = load i64, ptr %7, align 8, !tbaa !9
  %20 = sub i64 128, %19
  %21 = load i64, ptr %5, align 8, !tbaa !9
  %22 = icmp ugt i64 %20, %21
  br i1 %22, label %23, label %25

23:                                               ; preds = %14
  %24 = load i64, ptr %5, align 8, !tbaa !9
  br label %28

25:                                               ; preds = %14
  %26 = load i64, ptr %7, align 8, !tbaa !9
  %27 = sub i64 128, %26
  br label %28

28:                                               ; preds = %25, %23
  %29 = phi i64 [ %24, %23 ], [ %27, %25 ]
  store i64 %29, ptr %8, align 8, !tbaa !9
  %30 = load ptr, ptr %6, align 8, !tbaa !18
  %31 = getelementptr inbounds nuw %struct.sha256_ctx, ptr %30, i32 0, i32 3
  %32 = load i64, ptr %7, align 8, !tbaa !9
  %33 = getelementptr inbounds nuw [128 x i8], ptr %31, i64 0, i64 %32
  %34 = load ptr, ptr %4, align 8, !tbaa !22
  %35 = load i64, ptr %8, align 8, !tbaa !9
  call void @llvm.memcpy.p0.p0.i64(ptr align 1 %33, ptr align 1 %34, i64 %35, i1 false)
  %36 = load i64, ptr %8, align 8, !tbaa !9
  %37 = trunc i64 %36 to i32
  %38 = load ptr, ptr %6, align 8, !tbaa !18
  %39 = getelementptr inbounds nuw %struct.sha256_ctx, ptr %38, i32 0, i32 2
  %40 = load i32, ptr %39, align 4, !tbaa !20
  %41 = add i32 %40, %37
  store i32 %41, ptr %39, align 4, !tbaa !20
  %42 = load ptr, ptr %6, align 8, !tbaa !18
  %43 = getelementptr inbounds nuw %struct.sha256_ctx, ptr %42, i32 0, i32 2
  %44 = load i32, ptr %43, align 4, !tbaa !20
  %45 = icmp ugt i32 %44, 64
  br i1 %45, label %46, label %74

46:                                               ; preds = %28
  %47 = load ptr, ptr %6, align 8, !tbaa !18
  %48 = getelementptr inbounds nuw %struct.sha256_ctx, ptr %47, i32 0, i32 3
  %49 = getelementptr inbounds [128 x i8], ptr %48, i64 0, i64 0
  %50 = load ptr, ptr %6, align 8, !tbaa !18
  %51 = getelementptr inbounds nuw %struct.sha256_ctx, ptr %50, i32 0, i32 2
  %52 = load i32, ptr %51, align 4, !tbaa !20
  %53 = and i32 %52, -64
  %54 = zext i32 %53 to i64
  %55 = load ptr, ptr %6, align 8, !tbaa !18
  call void @sha256_process_block(ptr noundef %49, i64 noundef %54, ptr noundef %55)
  %56 = load ptr, ptr %6, align 8, !tbaa !18
  %57 = getelementptr inbounds nuw %struct.sha256_ctx, ptr %56, i32 0, i32 2
  %58 = load i32, ptr %57, align 4, !tbaa !20
  %59 = and i32 %58, 63
  store i32 %59, ptr %57, align 4, !tbaa !20
  %60 = load ptr, ptr %6, align 8, !tbaa !18
  %61 = getelementptr inbounds nuw %struct.sha256_ctx, ptr %60, i32 0, i32 3
  %62 = getelementptr inbounds [128 x i8], ptr %61, i64 0, i64 0
  %63 = load ptr, ptr %6, align 8, !tbaa !18
  %64 = getelementptr inbounds nuw %struct.sha256_ctx, ptr %63, i32 0, i32 3
  %65 = load i64, ptr %7, align 8, !tbaa !9
  %66 = load i64, ptr %8, align 8, !tbaa !9
  %67 = add i64 %65, %66
  %68 = and i64 %67, -64
  %69 = getelementptr inbounds nuw [128 x i8], ptr %64, i64 0, i64 %68
  %70 = load ptr, ptr %6, align 8, !tbaa !18
  %71 = getelementptr inbounds nuw %struct.sha256_ctx, ptr %70, i32 0, i32 2
  %72 = load i32, ptr %71, align 4, !tbaa !20
  %73 = zext i32 %72 to i64
  call void @llvm.memcpy.p0.p0.i64(ptr align 4 %62, ptr align 1 %69, i64 %73, i1 false)
  br label %74

74:                                               ; preds = %46, %28
  %75 = load ptr, ptr %4, align 8, !tbaa !22
  %76 = load i64, ptr %8, align 8, !tbaa !9
  %77 = getelementptr inbounds nuw i8, ptr %75, i64 %76
  store ptr %77, ptr %4, align 8, !tbaa !22
  %78 = load i64, ptr %8, align 8, !tbaa !9
  %79 = load i64, ptr %5, align 8, !tbaa !9
  %80 = sub i64 %79, %78
  store i64 %80, ptr %5, align 8, !tbaa !9
  call void @llvm.lifetime.end.p0(i64 8, ptr %8) #12
  call void @llvm.lifetime.end.p0(i64 8, ptr %7) #12
  br label %81

81:                                               ; preds = %74, %3
  %82 = load i64, ptr %5, align 8, !tbaa !9
  %83 = icmp uge i64 %82, 64
  br i1 %83, label %84, label %116

84:                                               ; preds = %81
  %85 = load ptr, ptr %4, align 8, !tbaa !22
  %86 = ptrtoint ptr %85 to i64
  %87 = urem i64 %86, 4
  %88 = icmp ne i64 %87, 0
  br i1 %88, label %89, label %104

89:                                               ; preds = %84
  br label %90

90:                                               ; preds = %93, %89
  %91 = load i64, ptr %5, align 8, !tbaa !9
  %92 = icmp ugt i64 %91, 64
  br i1 %92, label %93, label %103

93:                                               ; preds = %90
  %94 = load ptr, ptr %6, align 8, !tbaa !18
  %95 = getelementptr inbounds nuw %struct.sha256_ctx, ptr %94, i32 0, i32 3
  %96 = getelementptr inbounds [128 x i8], ptr %95, i64 0, i64 0
  %97 = load ptr, ptr %4, align 8, !tbaa !22
  call void @llvm.memcpy.p0.p0.i64(ptr align 4 %96, ptr align 1 %97, i64 64, i1 false)
  %98 = load ptr, ptr %6, align 8, !tbaa !18
  call void @sha256_process_block(ptr noundef %96, i64 noundef 64, ptr noundef %98)
  %99 = load ptr, ptr %4, align 8, !tbaa !22
  %100 = getelementptr inbounds i8, ptr %99, i64 64
  store ptr %100, ptr %4, align 8, !tbaa !22
  %101 = load i64, ptr %5, align 8, !tbaa !9
  %102 = sub i64 %101, 64
  store i64 %102, ptr %5, align 8, !tbaa !9
  br label %90

103:                                              ; preds = %90
  br label %115

104:                                              ; preds = %84
  %105 = load ptr, ptr %4, align 8, !tbaa !22
  %106 = load i64, ptr %5, align 8, !tbaa !9
  %107 = and i64 %106, -64
  %108 = load ptr, ptr %6, align 8, !tbaa !18
  call void @sha256_process_block(ptr noundef %105, i64 noundef %107, ptr noundef %108)
  %109 = load ptr, ptr %4, align 8, !tbaa !22
  %110 = load i64, ptr %5, align 8, !tbaa !9
  %111 = and i64 %110, -64
  %112 = getelementptr inbounds nuw i8, ptr %109, i64 %111
  store ptr %112, ptr %4, align 8, !tbaa !22
  %113 = load i64, ptr %5, align 8, !tbaa !9
  %114 = and i64 %113, 63
  store i64 %114, ptr %5, align 8, !tbaa !9
  br label %115

115:                                              ; preds = %104, %103
  br label %116

116:                                              ; preds = %115, %81
  %117 = load i64, ptr %5, align 8, !tbaa !9
  %118 = icmp ugt i64 %117, 0
  br i1 %118, label %119, label %154

119:                                              ; preds = %116
  call void @llvm.lifetime.start.p0(i64 8, ptr %9) #12
  %120 = load ptr, ptr %6, align 8, !tbaa !18
  %121 = getelementptr inbounds nuw %struct.sha256_ctx, ptr %120, i32 0, i32 2
  %122 = load i32, ptr %121, align 4, !tbaa !20
  %123 = zext i32 %122 to i64
  store i64 %123, ptr %9, align 8, !tbaa !9
  %124 = load ptr, ptr %6, align 8, !tbaa !18
  %125 = getelementptr inbounds nuw %struct.sha256_ctx, ptr %124, i32 0, i32 3
  %126 = load i64, ptr %9, align 8, !tbaa !9
  %127 = getelementptr inbounds nuw [128 x i8], ptr %125, i64 0, i64 %126
  %128 = load ptr, ptr %4, align 8, !tbaa !22
  %129 = load i64, ptr %5, align 8, !tbaa !9
  call void @llvm.memcpy.p0.p0.i64(ptr align 1 %127, ptr align 1 %128, i64 %129, i1 false)
  %130 = load i64, ptr %5, align 8, !tbaa !9
  %131 = load i64, ptr %9, align 8, !tbaa !9
  %132 = add i64 %131, %130
  store i64 %132, ptr %9, align 8, !tbaa !9
  %133 = load i64, ptr %9, align 8, !tbaa !9
  %134 = icmp uge i64 %133, 64
  br i1 %134, label %135, label %149

135:                                              ; preds = %119
  %136 = load ptr, ptr %6, align 8, !tbaa !18
  %137 = getelementptr inbounds nuw %struct.sha256_ctx, ptr %136, i32 0, i32 3
  %138 = getelementptr inbounds [128 x i8], ptr %137, i64 0, i64 0
  %139 = load ptr, ptr %6, align 8, !tbaa !18
  call void @sha256_process_block(ptr noundef %138, i64 noundef 64, ptr noundef %139)
  %140 = load i64, ptr %9, align 8, !tbaa !9
  %141 = sub i64 %140, 64
  store i64 %141, ptr %9, align 8, !tbaa !9
  %142 = load ptr, ptr %6, align 8, !tbaa !18
  %143 = getelementptr inbounds nuw %struct.sha256_ctx, ptr %142, i32 0, i32 3
  %144 = getelementptr inbounds [128 x i8], ptr %143, i64 0, i64 0
  %145 = load ptr, ptr %6, align 8, !tbaa !18
  %146 = getelementptr inbounds nuw %struct.sha256_ctx, ptr %145, i32 0, i32 3
  %147 = getelementptr inbounds [128 x i8], ptr %146, i64 0, i64 64
  %148 = load i64, ptr %9, align 8, !tbaa !9
  call void @llvm.memcpy.p0.p0.i64(ptr align 4 %144, ptr align 4 %147, i64 %148, i1 false)
  br label %149

149:                                              ; preds = %135, %119
  %150 = load i64, ptr %9, align 8, !tbaa !9
  %151 = trunc i64 %150 to i32
  %152 = load ptr, ptr %6, align 8, !tbaa !18
  %153 = getelementptr inbounds nuw %struct.sha256_ctx, ptr %152, i32 0, i32 2
  store i32 %151, ptr %153, align 4, !tbaa !20
  call void @llvm.lifetime.end.p0(i64 8, ptr %9) #12
  br label %154

154:                                              ; preds = %149, %116
  ret void
}