; Function Attrs: nofree norecurse nosync nounwind memory(argmem: readwrite) uwtable
define internal fastcc void @sha256_process_bytes(ptr noundef %0, i64 noundef %1, ptr noundef nonnull captures(none) %2) unnamed_addr #8 {
  %4 = getelementptr inbounds nuw i8, ptr %2, i64 40
  %5 = load i32, ptr %4, align 4, !tbaa !13
  %.not = icmp eq i32 %5, 0
  br i1 %.not, label %27, label %6

6:                                                ; preds = %3
  %7 = zext i32 %5 to i64
  %8 = sub nsw i64 128, %7
  %9 = tail call i64 @llvm.umin.i64(i64 %8, i64 %1)
  %10 = getelementptr inbounds nuw i8, ptr %2, i64 44
  %11 = getelementptr inbounds nuw [128 x i8], ptr %10, i64 0, i64 %7
  tail call void @llvm.memcpy.p0.p0.i64(ptr nonnull align 1 %11, ptr align 1 %0, i64 %9, i1 false)
  %12 = trunc i64 %9 to i32
  %13 = add i32 %5, %12
  store i32 %13, ptr %4, align 4, !tbaa !13
  %14 = icmp ugt i32 %13, 64
  br i1 %14, label %15, label %24

15:                                               ; preds = %6
  %16 = and i32 %13, -64
  %17 = zext i32 %16 to i64
  tail call fastcc void @sha256_process_block(ptr noundef nonnull %10, i64 noundef %17, ptr noundef %2)
  %18 = load i32, ptr %4, align 4, !tbaa !13
  %19 = and i32 %18, 63
  store i32 %19, ptr %4, align 4, !tbaa !13
  %20 = add i64 %9, %7
  %21 = and i64 %20, -64
  %22 = getelementptr inbounds nuw [128 x i8], ptr %10, i64 0, i64 %21
  %23 = zext nneg i32 %19 to i64
  tail call void @llvm.memcpy.p0.p0.i64(ptr nonnull align 4 %10, ptr nonnull align 1 %22, i64 %23, i1 false)
  br label %24

24:                                               ; preds = %15, %6
  %25 = getelementptr inbounds nuw i8, ptr %0, i64 %9
  %26 = sub i64 %1, %9
  br label %27

27:                                               ; preds = %24, %3
  %.057 = phi i64 [ %26, %24 ], [ %1, %3 ]
  %.056 = phi ptr [ %25, %24 ], [ %0, %3 ]
  %28 = icmp ugt i64 %.057, 63
  br i1 %28, label %29, label %41

29:                                               ; preds = %27
  %30 = ptrtoint ptr %.056 to i64
  %31 = and i64 %30, 3
  %.not64 = icmp eq i64 %31, 0
  br i1 %.not64, label %37, label %.preheader

.preheader:                                       ; preds = %29
  %.not74 = icmp eq i64 %.057, 64
  br i1 %.not74, label %.thread, label %.lr.ph

.lr.ph:                                           ; preds = %.preheader
  %32 = getelementptr inbounds nuw i8, ptr %2, i64 44
  br label %33

33:                                               ; preds = %.lr.ph, %33
  %.272 = phi ptr [ %.056, %.lr.ph ], [ %34, %33 ]
  %.25971 = phi i64 [ %.057, %.lr.ph ], [ %35, %33 ]
  tail call void @llvm.memcpy.p0.p0.i64(ptr noundef nonnull align 4 dereferenceable(64) %32, ptr noundef nonnull align 1 dereferenceable(64) %.272, i64 64, i1 false)
  tail call fastcc void @sha256_process_block(ptr noundef nonnull %32, i64 noundef 64, ptr noundef %2)
  %34 = getelementptr inbounds nuw i8, ptr %.272, i64 64
  %35 = add i64 %.25971, -64
  %36 = icmp ugt i64 %35, 64
  br i1 %36, label %33, label %.thread

37:                                               ; preds = %29
  %38 = and i64 %.057, -64
  tail call fastcc void @sha256_process_block(ptr noundef %.056, i64 noundef %38, ptr noundef %2)
  %39 = getelementptr inbounds nuw i8, ptr %.056, i64 %38
  %40 = and i64 %.057, 63
  br label %41

41:                                               ; preds = %37, %27
  %.158 = phi i64 [ %40, %37 ], [ %.057, %27 ]
  %.1 = phi ptr [ %39, %37 ], [ %.056, %27 ]
  %.not65 = icmp eq i64 %.158, 0
  br i1 %.not65, label %53, label %.thread

.thread:                                          ; preds = %33, %.preheader, %41
  %.170 = phi ptr [ %.1, %41 ], [ %.056, %.preheader ], [ %34, %33 ]
  %.15869 = phi i64 [ %.158, %41 ], [ 64, %.preheader ], [ %35, %33 ]
  %42 = load i32, ptr %4, align 4, !tbaa !13
  %43 = zext i32 %42 to i64
  %44 = getelementptr inbounds nuw i8, ptr %2, i64 44
  %45 = getelementptr inbounds nuw [128 x i8], ptr %44, i64 0, i64 %43
  tail call void @llvm.memcpy.p0.p0.i64(ptr nonnull align 1 %45, ptr align 1 %.170, i64 %.15869, i1 false)
  %46 = add nuw nsw i64 %.15869, %43
  %47 = icmp samesign ugt i64 %46, 63
  br i1 %47, label %48, label %51

48:                                               ; preds = %.thread
  tail call fastcc void @sha256_process_block(ptr noundef nonnull %44, i64 noundef 64, ptr noundef %2)
  %49 = add nsw i64 %46, -64
  %50 = getelementptr inbounds nuw i8, ptr %2, i64 108
  tail call void @llvm.memcpy.p0.p0.i64(ptr nonnull align 4 %44, ptr nonnull align 4 %50, i64 %49, i1 false)
  br label %51

51:                                               ; preds = %48, %.thread
  %.0 = phi i64 [ %49, %48 ], [ %46, %.thread ]
  %52 = trunc nuw i64 %.0 to i32
  store i32 %52, ptr %4, align 4, !tbaa !13
  br label %53

53:                                               ; preds = %51, %41
  ret void
}